; Function Attrs: nounwind uwtable
define dso_local range(i32 -2147483648, 0) i32 @onig_builtin_error(ptr noundef readonly captures(none) %0, ptr noundef readnone captures(none) %1) local_unnamed_addr #4 {
  %3 = getelementptr inbounds nuw i8, ptr %0, i64 8
  %4 = load i32, ptr %3, align 8, !tbaa !52
  %5 = getelementptr inbounds nuw i8, ptr %0, i64 16
  %6 = load ptr, ptr %5, align 8, !tbaa !157
  %7 = tail call ptr @onig_reg_callout_list_at(ptr noundef %6, i32 noundef %4) #30
  %8 = icmp eq ptr %7, null
  br i1 %8, label %onig_get_arg_by_callout_args.exit.thread, label %9

9:                                                ; preds = %2
  %10 = getelementptr inbounds nuw i8, ptr %7, i64 4
  %11 = load i32, ptr %10, align 4, !tbaa !208
  %12 = icmp eq i32 %11, 1
  br i1 %12, label %13, label %onig_get_arg_by_callout_args.exit.thread

13:                                               ; preds = %9
  %14 = getelementptr inbounds nuw i8, ptr %7, i64 80
  %.sroa.0.0.copyload = load i64, ptr %14, align 8
  %15 = trunc i64 %.sroa.0.0.copyload to i32
  %16 = icmp sgt i32 %15, -1
  br i1 %16, label %onig_get_arg_by_callout_args.exit.thread, label %17

17:                                               ; preds = %13
  %18 = tail call i32 @onig_is_error_code_needs_param(i32 noundef %15) #30
  %.not9 = icmp eq i32 %18, 0
  %spec.select = select i1 %.not9, i32 %15, i32 -230
  br label %onig_get_arg_by_callout_args.exit.thread

onig_get_arg_by_callout_args.exit.thread:         ; preds = %9, %2, %17, %13
  %.06 = phi i32 [ -230, %13 ], [ %spec.select, %17 ], [ -30, %2 ], [ -30, %9 ]
  ret i32 %.06
}